target datalayout = "e-m:e-p270:32:32-p271:32:32-p272:64:64-i64:64-i128:128-f80:128-n8:16:32:64-S128"
target triple = "x86_64-pc-linux-gnu"

%"struct.duckdb_libpgquery::pg_parser_state_str" = type { i32, i32, [8192 x i8], i64, i64, ptr, i64 }

@_ZN17duckdb_libpgqueryL15pg_parser_stateE = internal thread_local global %"struct.duckdb_libpgquery::pg_parser_state_str" zeroinitializer, align 8

; Function Attrs: mustprogress nounwind uwtable
define hidden void @_ZN17duckdb_libpgquery17pg_parser_cleanupEv() #6 {
  %1 = alloca i64, align 8
  %2 = alloca ptr, align 8
  call void @llvm.lifetime.start.p0(i64 8, ptr %1) #13
  store i64 0, ptr %1, align 8, !tbaa !3
  br label %3

3:                                                ; preds = %27, %0
  %4 = load i64, ptr %1, align 8, !tbaa !3
  %5 = call align 8 ptr @llvm.threadlocal.address.p0(ptr align 8 @_ZN17duckdb_libpgqueryL15pg_parser_stateE)
  %6 = getelementptr inbounds nuw %"struct.duckdb_libpgquery::pg_parser_state_str", ptr %5, i32 0, i32 4
  %7 = load i64, ptr %6, align 8, !tbaa !13
  %8 = icmp ult i64 %4, %7
  br i1 %8, label %10, label %9

9:                                                ; preds = %3
  call void @llvm.lifetime.end.p0(i64 8, ptr %1) #13
  br label %30

10:                                               ; preds = %3
  call void @llvm.lifetime.start.p0(i64 8, ptr %2) #13
  %11 = call align 8 ptr @llvm.threadlocal.address.p0(ptr align 8 @_ZN17duckdb_libpgqueryL15pg_parser_stateE)
  %12 = getelementptr inbounds nuw %"struct.duckdb_libpgquery::pg_parser_state_str", ptr %11, i32 0, i32 5
  %13 = load ptr, ptr %12, align 8, !tbaa !12
  %14 = load i64, ptr %1, align 8, !tbaa !3
  %15 = getelementptr inbounds nuw ptr, ptr %13, i64 %14
  %16 = load ptr, ptr %15, align 8, !tbaa !14
  store ptr %16, ptr %2, align 8, !tbaa !14
  %17 = load ptr, ptr %2, align 8, !tbaa !14
  %18 = icmp ne ptr %17, null
  br i1 %18, label %19, label %26

19:                                               ; preds = %10
  %20 = load ptr, ptr %2, align 8, !tbaa !14
  call void @free(ptr noundef %20) #13
  %21 = call align 8 ptr @llvm.threadlocal.address.p0(ptr align 8 @_ZN17duckdb_libpgqueryL15pg_parser_stateE)
  %22 = getelementptr inbounds nuw %"struct.duckdb_libpgquery::pg_parser_state_str", ptr %21, i32 0, i32 5
  %23 = load ptr, ptr %22, align 8, !tbaa !12
  %24 = load i64, ptr %1, align 8, !tbaa !3
  %25 = getelementptr inbounds nuw ptr, ptr %23, i64 %24
  store ptr null, ptr %25, align 8, !tbaa !14
  br label %26

26:                                               ; preds = %19, %10
  call void @llvm.lifetime.end.p0(i64 8, ptr %2) #13
  br label %27

27:                                               ; preds = %26
  %28 = load i64, ptr %1, align 8, !tbaa !3
  %29 = add i64 %28, 1
  store i64 %29, ptr %1, align 8, !tbaa !3
  br label %3, !llvm.loop !41

30:                                               ; preds = %9
  %31 = call align 8 ptr @llvm.threadlocal.address.p0(ptr align 8 @_ZN17duckdb_libpgqueryL15pg_parser_stateE)
  %32 = getelementptr inbounds nuw %"struct.duckdb_libpgquery::pg_parser_state_str", ptr %31, i32 0, i32 5
  %33 = load ptr, ptr %32, align 8, !tbaa !12
  call void @free(ptr noundef %33) #13
  ret void
}