; Function Attrs: mustprogress nounwind uwtable
define hidden void @_ZN17duckdb_libpgquery17pg_parser_cleanupEv() local_unnamed_addr #12 {
  %1 = tail call align 8 ptr @llvm.threadlocal.address.p0(ptr align 8 @_ZN17duckdb_libpgqueryL15pg_parser_stateE)
  %2 = getelementptr inbounds nuw i8, ptr %1, i64 8208
  %3 = load i64, ptr %2, align 8, !tbaa !12
  %.not7 = icmp eq i64 %3, 0
  %.phi.trans.insert = getelementptr inbounds nuw i8, ptr %1, i64 8216
  %.pre9 = load ptr, ptr %.phi.trans.insert, align 8, !tbaa !11
  br i1 %.not7, label %._crit_edge, label %.lr.ph

._crit_edge:                                      ; preds = %12, %0
  %4 = phi ptr [ %.pre9, %0 ], [ %14, %12 ]
  tail call void @free(ptr noundef %4) #24
  ret void

.lr.ph:                                           ; preds = %0, %12
  %5 = phi i64 [ %13, %12 ], [ %3, %0 ]
  %6 = phi ptr [ %14, %12 ], [ %.pre9, %0 ]
  %.06 = phi i64 [ %15, %12 ], [ 0, %0 ]
  %7 = getelementptr inbounds nuw ptr, ptr %6, i64 %.06
  %8 = load ptr, ptr %7, align 8, !tbaa !13
  %.not = icmp eq ptr %8, null
  br i1 %.not, label %12, label %9

9:                                                ; preds = %.lr.ph
  tail call void @free(ptr noundef nonnull %8) #24
  %10 = load ptr, ptr %.phi.trans.insert, align 8, !tbaa !11
  %11 = getelementptr inbounds nuw ptr, ptr %10, i64 %.06
  store ptr null, ptr %11, align 8, !tbaa !13
  %.pre8 = load i64, ptr %2, align 8, !tbaa !12
  br label %12

12:                                               ; preds = %9, %.lr.ph
  %13 = phi i64 [ %.pre8, %9 ], [ %5, %.lr.ph ]
  %14 = phi ptr [ %10, %9 ], [ %6, %.lr.ph ]
  %15 = add nuw i64 %.06, 1
  %16 = icmp ult i64 %15, %13
  br i1 %16, label %.lr.ph, label %._crit_edge, !llvm.loop !29
}